; Function Attrs: mustprogress uwtable
define hidden noundef nonnull ptr @_ZN17duckdb_libpgquery8psprintfEPKcz(ptr noundef readonly captures(none) %0, ...) local_unnamed_addr #0 {
  %2 = alloca [8192 x i8], align 16
  %3 = alloca [1 x %struct.__va_list_tag], align 16
  call void @llvm.lifetime.start.p0(i64 8192, ptr nonnull %2) #24
  call void @llvm.lifetime.start.p0(i64 24, ptr nonnull %3) #24
  call void @llvm.va_start.p0(ptr nonnull %3)
  %4 = call i32 @vsnprintf(ptr noundef nonnull %2, i64 noundef 8192, ptr noundef %0, ptr noundef nonnull %3) #24
  call void @llvm.va_end.p0(ptr nonnull %3)
  %5 = icmp ult i32 %4, 8192
  %6 = call align 8 ptr @llvm.threadlocal.address.p0(ptr align 8 @_ZN17duckdb_libpgqueryL15pg_parser_stateE)
  %7 = getelementptr inbounds nuw i8, ptr %6, i64 8200
  %8 = load i64, ptr %7, align 8, !tbaa !3
  br i1 %5, label %9, label %29

9:                                                ; preds = %1
  %10 = call i64 @strlen(ptr noundef nonnull readonly dereferenceable(1) %2) #28
  %11 = and i64 %10, -8
  %12 = add i64 %11, 16
  %13 = add i64 %12, %8
  %14 = icmp ugt i64 %13, 10240
  br i1 %14, label %15, label %_ZN17duckdb_libpgquery7pstrdupEPKc.exit

15:                                               ; preds = %9
  call fastcc void @_ZN17duckdb_libpgqueryL12allocate_newEPNS_19pg_parser_state_strEm(ptr noundef %6, i64 noundef %12)
  %.pre.i.i = load i64, ptr %7, align 8, !tbaa !3
  br label %_ZN17duckdb_libpgquery7pstrdupEPKc.exit

_ZN17duckdb_libpgquery7pstrdupEPKc.exit:          ; preds = %9, %15
  %16 = phi i64 [ %.pre.i.i, %15 ], [ %8, %9 ]
  %17 = add i64 %10, 1
  %18 = getelementptr inbounds nuw i8, ptr %6, i64 8216
  %19 = load ptr, ptr %18, align 8, !tbaa !11
  %20 = getelementptr inbounds nuw i8, ptr %6, i64 8208
  %21 = load i64, ptr %20, align 8, !tbaa !12
  %22 = getelementptr ptr, ptr %19, i64 %21
  %23 = getelementptr i8, ptr %22, i64 -8
  %24 = load ptr, ptr %23, align 8, !tbaa !13
  %25 = getelementptr inbounds nuw i8, ptr %24, i64 %16
  store i64 %17, ptr %25, align 1
  %26 = getelementptr inbounds nuw i8, ptr %25, i64 8
  call void @llvm.memset.p0.i64(ptr nonnull align 1 %26, i8 0, i64 %17, i1 false)
  %27 = load i64, ptr %7, align 8, !tbaa !3
  %28 = add i64 %27, %12
  store i64 %28, ptr %7, align 8, !tbaa !3
  call void @llvm.memcpy.p0.p0.i64(ptr nonnull align 1 %26, ptr nonnull readonly align 16 %2, i64 %10, i1 false)
  br label %49

29:                                               ; preds = %1
  %30 = sext i32 %4 to i64
  %31 = add nsw i64 %30, 15
  %32 = and i64 %31, -8
  %33 = add i64 %8, %32
  %34 = icmp ugt i64 %33, 10240
  br i1 %34, label %35, label %_ZN17duckdb_libpgquery6pallocEm.exit

35:                                               ; preds = %29
  call fastcc void @_ZN17duckdb_libpgqueryL12allocate_newEPNS_19pg_parser_state_strEm(ptr noundef %6, i64 noundef %32)
  %.pre.i = load i64, ptr %7, align 8, !tbaa !3
  br label %_ZN17duckdb_libpgquery6pallocEm.exit

_ZN17duckdb_libpgquery6pallocEm.exit:             ; preds = %29, %35
  %36 = phi i64 [ %.pre.i, %35 ], [ %8, %29 ]
  %37 = getelementptr inbounds nuw i8, ptr %6, i64 8216
  %38 = load ptr, ptr %37, align 8, !tbaa !11
  %39 = getelementptr inbounds nuw i8, ptr %6, i64 8208
  %40 = load i64, ptr %39, align 8, !tbaa !12
  %41 = getelementptr ptr, ptr %38, i64 %40
  %42 = getelementptr i8, ptr %41, i64 -8
  %43 = load ptr, ptr %42, align 8, !tbaa !13
  %44 = getelementptr inbounds nuw i8, ptr %43, i64 %36
  store i64 %30, ptr %44, align 1
  %45 = getelementptr inbounds nuw i8, ptr %44, i64 8
  call void @llvm.memset.p0.i64(ptr nonnull align 1 %45, i8 0, i64 %30, i1 false)
  %46 = load i64, ptr %7, align 8, !tbaa !3
  %47 = add i64 %46, %32
  store i64 %47, ptr %7, align 8, !tbaa !3
  call void @llvm.va_start.p0(ptr nonnull %3)
  %48 = call i32 @vsnprintf(ptr noundef nonnull %45, i64 noundef %30, ptr noundef %0, ptr noundef nonnull %3) #24
  call void @llvm.va_end.p0(ptr nonnull %3)
  br label %49

49:                                               ; preds = %_ZN17duckdb_libpgquery6pallocEm.exit, %_ZN17duckdb_libpgquery7pstrdupEPKc.exit
  %.0 = phi ptr [ %26, %_ZN17duckdb_libpgquery7pstrdupEPKc.exit ], [ %45, %_ZN17duckdb_libpgquery6pallocEm.exit ]
  call void @llvm.lifetime.end.p0(i64 24, ptr nonnull %3) #24
  call void @llvm.lifetime.end.p0(i64 8192, ptr nonnull %2) #24
  ret ptr %.0
}